target datalayout = "e-m:e-p270:32:32-p271:32:32-p272:64:64-i64:64-i128:128-f80:128-n8:16:32:64-S128"
target triple = "x86_64-pc-linux-gnu"

@.str.12 = private unnamed_addr constant [4 x i8] c"USE\00", align 1
@.str.13 = private unnamed_addr constant [11 x i8] c"DEF_GLOBAL\00", align 1
@.str.14 = private unnamed_addr constant [13 x i8] c"DEF_NONLOCAL\00", align 1
@.str.15 = private unnamed_addr constant [10 x i8] c"DEF_LOCAL\00", align 1
@.str.16 = private unnamed_addr constant [10 x i8] c"DEF_PARAM\00", align 1
@.str.17 = private unnamed_addr constant [15 x i8] c"DEF_TYPE_PARAM\00", align 1
@.str.18 = private unnamed_addr constant [15 x i8] c"DEF_FREE_CLASS\00", align 1
@.str.19 = private unnamed_addr constant [11 x i8] c"DEF_IMPORT\00", align 1
@.str.20 = private unnamed_addr constant [10 x i8] c"DEF_BOUND\00", align 1
@.str.21 = private unnamed_addr constant [10 x i8] c"DEF_ANNOT\00", align 1
@.str.22 = private unnamed_addr constant [14 x i8] c"DEF_COMP_ITER\00", align 1
@.str.23 = private unnamed_addr constant [14 x i8] c"DEF_COMP_CELL\00", align 1
@.str.24 = private unnamed_addr constant [14 x i8] c"TYPE_FUNCTION\00", align 1
@.str.25 = private unnamed_addr constant [11 x i8] c"TYPE_CLASS\00", align 1
@.str.26 = private unnamed_addr constant [12 x i8] c"TYPE_MODULE\00", align 1
@.str.27 = private unnamed_addr constant [16 x i8] c"TYPE_ANNOTATION\00", align 1
@.str.28 = private unnamed_addr constant [16 x i8] c"TYPE_TYPE_ALIAS\00", align 1
@.str.29 = private unnamed_addr constant [21 x i8] c"TYPE_TYPE_PARAMETERS\00", align 1
@.str.30 = private unnamed_addr constant [19 x i8] c"TYPE_TYPE_VARIABLE\00", align 1
@.str.31 = private unnamed_addr constant [6 x i8] c"LOCAL\00", align 1
@.str.32 = private unnamed_addr constant [16 x i8] c"GLOBAL_EXPLICIT\00", align 1
@.str.33 = private unnamed_addr constant [16 x i8] c"GLOBAL_IMPLICIT\00", align 1
@.str.34 = private unnamed_addr constant [5 x i8] c"FREE\00", align 1
@.str.35 = private unnamed_addr constant [5 x i8] c"CELL\00", align 1
@.str.36 = private unnamed_addr constant [10 x i8] c"SCOPE_OFF\00", align 1
@.str.37 = private unnamed_addr constant [11 x i8] c"SCOPE_MASK\00", align 1

; Function Attrs: nounwind uwtable
define internal i32 @symtable_init_constants(ptr noundef %0) #0 {
  %2 = alloca i32, align 4
  %3 = alloca ptr, align 8
  store ptr %0, ptr %3, align 8, !tbaa !4
  %4 = load ptr, ptr %3, align 8, !tbaa !4
  %5 = call i32 @PyModule_AddIntConstant(ptr noundef %4, ptr noundef @.str.12, i64 noundef 16)
  %6 = icmp slt i32 %5, 0
  br i1 %6, label %7, label %8

7:                                                ; preds = %1
  store i32 -1, ptr %2, align 4
  br label %134

8:                                                ; preds = %1
  %9 = load ptr, ptr %3, align 8, !tbaa !4
  %10 = call i32 @PyModule_AddIntConstant(ptr noundef %9, ptr noundef @.str.13, i64 noundef 1)
  %11 = icmp slt i32 %10, 0
  br i1 %11, label %12, label %13

12:                                               ; preds = %8
  store i32 -1, ptr %2, align 4
  br label %134

13:                                               ; preds = %8
  %14 = load ptr, ptr %3, align 8, !tbaa !4
  %15 = call i32 @PyModule_AddIntConstant(ptr noundef %14, ptr noundef @.str.14, i64 noundef 8)
  %16 = icmp slt i32 %15, 0
  br i1 %16, label %17, label %18

17:                                               ; preds = %13
  store i32 -1, ptr %2, align 4
  br label %134

18:                                               ; preds = %13
  %19 = load ptr, ptr %3, align 8, !tbaa !4
  %20 = call i32 @PyModule_AddIntConstant(ptr noundef %19, ptr noundef @.str.15, i64 noundef 2)
  %21 = icmp slt i32 %20, 0
  br i1 %21, label %22, label %23

22:                                               ; preds = %18
  store i32 -1, ptr %2, align 4
  br label %134

23:                                               ; preds = %18
  %24 = load ptr, ptr %3, align 8, !tbaa !4
  %25 = call i32 @PyModule_AddIntConstant(ptr noundef %24, ptr noundef @.str.16, i64 noundef 4)
  %26 = icmp slt i32 %25, 0
  br i1 %26, label %27, label %28

27:                                               ; preds = %23
  store i32 -1, ptr %2, align 4
  br label %134

28:                                               ; preds = %23
  %29 = load ptr, ptr %3, align 8, !tbaa !4
  %30 = call i32 @PyModule_AddIntConstant(ptr noundef %29, ptr noundef @.str.17, i64 noundef 1024)
  %31 = icmp slt i32 %30, 0
  br i1 %31, label %32, label %33

32:                                               ; preds = %28
  store i32 -1, ptr %2, align 4
  br label %134

33:                                               ; preds = %28
  %34 = load ptr, ptr %3, align 8, !tbaa !4
  %35 = call i32 @PyModule_AddIntConstant(ptr noundef %34, ptr noundef @.str.18, i64 noundef 64)
  %36 = icmp slt i32 %35, 0
  br i1 %36, label %37, label %38

37:                                               ; preds = %33
  store i32 -1, ptr %2, align 4
  br label %134

38:                                               ; preds = %33
  %39 = load ptr, ptr %3, align 8, !tbaa !4
  %40 = call i32 @PyModule_AddIntConstant(ptr noundef %39, ptr noundef @.str.19, i64 noundef 128)
  %41 = icmp slt i32 %40, 0
  br i1 %41, label %42, label %43

42:                                               ; preds = %38
  store i32 -1, ptr %2, align 4
  br label %134

43:                                               ; preds = %38
  %44 = load ptr, ptr %3, align 8, !tbaa !4
  %45 = call i32 @PyModule_AddIntConstant(ptr noundef %44, ptr noundef @.str.20, i64 noundef 134)
  %46 = icmp slt i32 %45, 0
  br i1 %46, label %47, label %48

47:                                               ; preds = %43
  store i32 -1, ptr %2, align 4
  br label %134

48:                                               ; preds = %43
  %49 = load ptr, ptr %3, align 8, !tbaa !4
  %50 = call i32 @PyModule_AddIntConstant(ptr noundef %49, ptr noundef @.str.21, i64 noundef 256)
  %51 = icmp slt i32 %50, 0
  br i1 %51, label %52, label %53

52:                                               ; preds = %48
  store i32 -1, ptr %2, align 4
  br label %134

53:                                               ; preds = %48
  %54 = load ptr, ptr %3, align 8, !tbaa !4
  %55 = call i32 @PyModule_AddIntConstant(ptr noundef %54, ptr noundef @.str.22, i64 noundef 512)
  %56 = icmp slt i32 %55, 0
  br i1 %56, label %57, label %58

57:                                               ; preds = %53
  store i32 -1, ptr %2, align 4
  br label %134

58:                                               ; preds = %53
  %59 = load ptr, ptr %3, align 8, !tbaa !4
  %60 = call i32 @PyModule_AddIntConstant(ptr noundef %59, ptr noundef @.str.23, i64 noundef 2048)
  %61 = icmp slt i32 %60, 0
  br i1 %61, label %62, label %63

62:                                               ; preds = %58
  store i32 -1, ptr %2, align 4
  br label %134

63:                                               ; preds = %58
  %64 = load ptr, ptr %3, align 8, !tbaa !4
  %65 = call i32 @PyModule_AddIntConstant(ptr noundef %64, ptr noundef @.str.24, i64 noundef 0)
  %66 = icmp slt i32 %65, 0
  br i1 %66, label %67, label %68

67:                                               ; preds = %63
  store i32 -1, ptr %2, align 4
  br label %134

68:                                               ; preds = %63
  %69 = load ptr, ptr %3, align 8, !tbaa !4
  %70 = call i32 @PyModule_AddIntConstant(ptr noundef %69, ptr noundef @.str.25, i64 noundef 1)
  %71 = icmp slt i32 %70, 0
  br i1 %71, label %72, label %73

72:                                               ; preds = %68
  store i32 -1, ptr %2, align 4
  br label %134

73:                                               ; preds = %68
  %74 = load ptr, ptr %3, align 8, !tbaa !4
  %75 = call i32 @PyModule_AddIntConstant(ptr noundef %74, ptr noundef @.str.26, i64 noundef 2)
  %76 = icmp slt i32 %75, 0
  br i1 %76, label %77, label %78

77:                                               ; preds = %73
  store i32 -1, ptr %2, align 4
  br label %134

78:                                               ; preds = %73
  %79 = load ptr, ptr %3, align 8, !tbaa !4
  %80 = call i32 @PyModule_AddIntConstant(ptr noundef %79, ptr noundef @.str.27, i64 noundef 3)
  %81 = icmp slt i32 %80, 0
  br i1 %81, label %82, label %83

82:                                               ; preds = %78
  store i32 -1, ptr %2, align 4
  br label %134

83:                                               ; preds = %78
  %84 = load ptr, ptr %3, align 8, !tbaa !4
  %85 = call i32 @PyModule_AddIntConstant(ptr noundef %84, ptr noundef @.str.28, i64 noundef 4)
  %86 = icmp slt i32 %85, 0
  br i1 %86, label %87, label %88

87:                                               ; preds = %83
  store i32 -1, ptr %2, align 4
  br label %134

88:                                               ; preds = %83
  %89 = load ptr, ptr %3, align 8, !tbaa !4
  %90 = call i32 @PyModule_AddIntConstant(ptr noundef %89, ptr noundef @.str.29, i64 noundef 5)
  %91 = icmp slt i32 %90, 0
  br i1 %91, label %92, label %93

92:                                               ; preds = %88
  store i32 -1, ptr %2, align 4
  br label %134

93:                                               ; preds = %88
  %94 = load ptr, ptr %3, align 8, !tbaa !4
  %95 = call i32 @PyModule_AddIntConstant(ptr noundef %94, ptr noundef @.str.30, i64 noundef 6)
  %96 = icmp slt i32 %95, 0
  br i1 %96, label %97, label %98

97:                                               ; preds = %93
  store i32 -1, ptr %2, align 4
  br label %134

98:                                               ; preds = %93
  %99 = load ptr, ptr %3, align 8, !tbaa !4
  %100 = call i32 @PyModule_AddIntConstant(ptr noundef %99, ptr noundef @.str.31, i64 noundef 1)
  %101 = icmp slt i32 %100, 0
  br i1 %101, label %102, label %103

102:                                              ; preds = %98
  store i32 -1, ptr %2, align 4
  br label %134

103:                                              ; preds = %98
  %104 = load ptr, ptr %3, align 8, !tbaa !4
  %105 = call i32 @PyModule_AddIntConstant(ptr noundef %104, ptr noundef @.str.32, i64 noundef 2)
  %106 = icmp slt i32 %105, 0
  br i1 %106, label %107, label %108

107:                                              ; preds = %103
  store i32 -1, ptr %2, align 4
  br label %134

108:                                              ; preds = %103
  %109 = load ptr, ptr %3, align 8, !tbaa !4
  %110 = call i32 @PyModule_AddIntConstant(ptr noundef %109, ptr noundef @.str.33, i64 noundef 3)
  %111 = icmp slt i32 %110, 0
  br i1 %111, label %112, label %113

112:                                              ; preds = %108
  store i32 -1, ptr %2, align 4
  br label %134

113:                                              ; preds = %108
  %114 = load ptr, ptr %3, align 8, !tbaa !4
  %115 = call i32 @PyModule_AddIntConstant(ptr noundef %114, ptr noundef @.str.34, i64 noundef 4)
  %116 = icmp slt i32 %115, 0
  br i1 %116, label %117, label %118

117:                                              ; preds = %113
  store i32 -1, ptr %2, align 4
  br label %134

118:                                              ; preds = %113
  %119 = load ptr, ptr %3, align 8, !tbaa !4
  %120 = call i32 @PyModule_AddIntConstant(ptr noundef %119, ptr noundef @.str.35, i64 noundef 5)
  %121 = icmp slt i32 %120, 0
  br i1 %121, label %122, label %123

122:                                              ; preds = %118
  store i32 -1, ptr %2, align 4
  br label %134

123:                                              ; preds = %118
  %124 = load ptr, ptr %3, align 8, !tbaa !4
  %125 = call i32 @PyModule_AddIntConstant(ptr noundef %124, ptr noundef @.str.36, i64 noundef 12)
  %126 = icmp slt i32 %125, 0
  br i1 %126, label %127, label %128

127:                                              ; preds = %123
  store i32 -1, ptr %2, align 4
  br label %134

128:                                              ; preds = %123
  %129 = load ptr, ptr %3, align 8, !tbaa !4
  %130 = call i32 @PyModule_AddIntConstant(ptr noundef %129, ptr noundef @.str.37, i64 noundef 15)
  %131 = icmp slt i32 %130, 0
  br i1 %131, label %132, label %133

132:                                              ; preds = %128
  store i32 -1, ptr %2, align 4
  br label %134

133:                                              ; preds = %128
  store i32 0, ptr %2, align 4
  br label %134

134:                                              ; preds = %133, %132, %127, %122, %117, %112, %107, %102, %97, %92, %87, %82, %77, %72, %67, %62, %57, %52, %47, %42, %37, %32, %27, %22, %17, %12, %7
  %135 = load i32, ptr %2, align 4
  ret i32 %135
}