; Function Attrs: nounwind uwtable
define internal range(i32 -1, 1) i32 @symtable_init_constants(ptr noundef %0) #0 {
  %2 = tail call i32 @PyModule_AddIntConstant(ptr noundef %0, ptr noundef nonnull @.str.12, i64 noundef 16) #4
  %3 = icmp slt i32 %2, 0
  br i1 %3, label %78, label %4

4:                                                ; preds = %1
  %5 = tail call i32 @PyModule_AddIntConstant(ptr noundef %0, ptr noundef nonnull @.str.13, i64 noundef 1) #4
  %6 = icmp slt i32 %5, 0
  br i1 %6, label %78, label %7

7:                                                ; preds = %4
  %8 = tail call i32 @PyModule_AddIntConstant(ptr noundef %0, ptr noundef nonnull @.str.14, i64 noundef 8) #4
  %9 = icmp slt i32 %8, 0
  br i1 %9, label %78, label %10

10:                                               ; preds = %7
  %11 = tail call i32 @PyModule_AddIntConstant(ptr noundef %0, ptr noundef nonnull @.str.15, i64 noundef 2) #4
  %12 = icmp slt i32 %11, 0
  br i1 %12, label %78, label %13

13:                                               ; preds = %10
  %14 = tail call i32 @PyModule_AddIntConstant(ptr noundef %0, ptr noundef nonnull @.str.16, i64 noundef 4) #4
  %15 = icmp slt i32 %14, 0
  br i1 %15, label %78, label %16

16:                                               ; preds = %13
  %17 = tail call i32 @PyModule_AddIntConstant(ptr noundef %0, ptr noundef nonnull @.str.17, i64 noundef 1024) #4
  %18 = icmp slt i32 %17, 0
  br i1 %18, label %78, label %19

19:                                               ; preds = %16
  %20 = tail call i32 @PyModule_AddIntConstant(ptr noundef %0, ptr noundef nonnull @.str.18, i64 noundef 64) #4
  %21 = icmp slt i32 %20, 0
  br i1 %21, label %78, label %22

22:                                               ; preds = %19
  %23 = tail call i32 @PyModule_AddIntConstant(ptr noundef %0, ptr noundef nonnull @.str.19, i64 noundef 128) #4
  %24 = icmp slt i32 %23, 0
  br i1 %24, label %78, label %25

25:                                               ; preds = %22
  %26 = tail call i32 @PyModule_AddIntConstant(ptr noundef %0, ptr noundef nonnull @.str.20, i64 noundef 134) #4
  %27 = icmp slt i32 %26, 0
  br i1 %27, label %78, label %28

28:                                               ; preds = %25
  %29 = tail call i32 @PyModule_AddIntConstant(ptr noundef %0, ptr noundef nonnull @.str.21, i64 noundef 256) #4
  %30 = icmp slt i32 %29, 0
  br i1 %30, label %78, label %31

31:                                               ; preds = %28
  %32 = tail call i32 @PyModule_AddIntConstant(ptr noundef %0, ptr noundef nonnull @.str.22, i64 noundef 512) #4
  %33 = icmp slt i32 %32, 0
  br i1 %33, label %78, label %34

34:                                               ; preds = %31
  %35 = tail call i32 @PyModule_AddIntConstant(ptr noundef %0, ptr noundef nonnull @.str.23, i64 noundef 2048) #4
  %36 = icmp slt i32 %35, 0
  br i1 %36, label %78, label %37

37:                                               ; preds = %34
  %38 = tail call i32 @PyModule_AddIntConstant(ptr noundef %0, ptr noundef nonnull @.str.24, i64 noundef 0) #4
  %39 = icmp slt i32 %38, 0
  br i1 %39, label %78, label %40

40:                                               ; preds = %37
  %41 = tail call i32 @PyModule_AddIntConstant(ptr noundef %0, ptr noundef nonnull @.str.25, i64 noundef 1) #4
  %42 = icmp slt i32 %41, 0
  br i1 %42, label %78, label %43

43:                                               ; preds = %40
  %44 = tail call i32 @PyModule_AddIntConstant(ptr noundef %0, ptr noundef nonnull @.str.26, i64 noundef 2) #4
  %45 = icmp slt i32 %44, 0
  br i1 %45, label %78, label %46

46:                                               ; preds = %43
  %47 = tail call i32 @PyModule_AddIntConstant(ptr noundef %0, ptr noundef nonnull @.str.27, i64 noundef 3) #4
  %48 = icmp slt i32 %47, 0
  br i1 %48, label %78, label %49

49:                                               ; preds = %46
  %50 = tail call i32 @PyModule_AddIntConstant(ptr noundef %0, ptr noundef nonnull @.str.28, i64 noundef 4) #4
  %51 = icmp slt i32 %50, 0
  br i1 %51, label %78, label %52

52:                                               ; preds = %49
  %53 = tail call i32 @PyModule_AddIntConstant(ptr noundef %0, ptr noundef nonnull @.str.29, i64 noundef 5) #4
  %54 = icmp slt i32 %53, 0
  br i1 %54, label %78, label %55

55:                                               ; preds = %52
  %56 = tail call i32 @PyModule_AddIntConstant(ptr noundef %0, ptr noundef nonnull @.str.30, i64 noundef 6) #4
  %57 = icmp slt i32 %56, 0
  br i1 %57, label %78, label %58

58:                                               ; preds = %55
  %59 = tail call i32 @PyModule_AddIntConstant(ptr noundef %0, ptr noundef nonnull @.str.31, i64 noundef 1) #4
  %60 = icmp slt i32 %59, 0
  br i1 %60, label %78, label %61

61:                                               ; preds = %58
  %62 = tail call i32 @PyModule_AddIntConstant(ptr noundef %0, ptr noundef nonnull @.str.32, i64 noundef 2) #4
  %63 = icmp slt i32 %62, 0
  br i1 %63, label %78, label %64

64:                                               ; preds = %61
  %65 = tail call i32 @PyModule_AddIntConstant(ptr noundef %0, ptr noundef nonnull @.str.33, i64 noundef 3) #4
  %66 = icmp slt i32 %65, 0
  br i1 %66, label %78, label %67

67:                                               ; preds = %64
  %68 = tail call i32 @PyModule_AddIntConstant(ptr noundef %0, ptr noundef nonnull @.str.34, i64 noundef 4) #4
  %69 = icmp slt i32 %68, 0
  br i1 %69, label %78, label %70

70:                                               ; preds = %67
  %71 = tail call i32 @PyModule_AddIntConstant(ptr noundef %0, ptr noundef nonnull @.str.35, i64 noundef 5) #4
  %72 = icmp slt i32 %71, 0
  br i1 %72, label %78, label %73

73:                                               ; preds = %70
  %74 = tail call i32 @PyModule_AddIntConstant(ptr noundef %0, ptr noundef nonnull @.str.36, i64 noundef 12) #4
  %75 = icmp slt i32 %74, 0
  br i1 %75, label %78, label %76

76:                                               ; preds = %73
  %77 = tail call i32 @PyModule_AddIntConstant(ptr noundef %0, ptr noundef nonnull @.str.37, i64 noundef 15) #4
  %.lobit = ashr i32 %77, 31
  br label %78

78:                                               ; preds = %76, %73, %70, %67, %64, %61, %58, %55, %52, %49, %46, %43, %40, %37, %34, %31, %28, %25, %22, %19, %16, %13, %10, %7, %4, %1
  %.0 = phi i32 [ -1, %1 ], [ -1, %4 ], [ -1, %7 ], [ -1, %10 ], [ -1, %13 ], [ -1, %16 ], [ -1, %19 ], [ -1, %22 ], [ -1, %25 ], [ -1, %28 ], [ -1, %31 ], [ -1, %34 ], [ -1, %37 ], [ -1, %40 ], [ -1, %43 ], [ -1, %46 ], [ -1, %49 ], [ -1, %52 ], [ -1, %55 ], [ -1, %58 ], [ -1, %61 ], [ -1, %64 ], [ -1, %67 ], [ -1, %70 ], [ -1, %73 ], [ %.lobit, %76 ]
  ret i32 %.0
}